target datalayout = "e-m:e-p270:32:32-p271:32:32-p272:64:64-i64:64-i128:128-f80:128-n8:16:32:64-S128"
target triple = "x86_64-pc-linux-gnu"

%struct.aiString = type { i32, [1024 x i8] }
%struct.aiMesh = type { i32, i32, i32, ptr, ptr, ptr, ptr, [8 x ptr], [8 x ptr], [8 x i32], ptr, i32, ptr, i32, %struct.aiString, i32, ptr, i32, %struct.aiAABB, ptr }
%struct.aiAABB = type { %class.aiVector3t, %class.aiVector3t }
%class.aiVector3t = type { float, float, float }
%struct.aiAnimMesh = type { %struct.aiString, ptr, ptr, ptr, ptr, [8 x ptr], [8 x ptr], i32, float }

; Function Attrs: mustprogress nounwind uwtable
define linkonce_odr hidden noundef zeroext i1 @_ZNK10aiAnimMesh16HasTextureCoordsEj(ptr noundef nonnull align 8 dereferenceable(1200) %0, i32 noundef %1) #0 comdat align 2 {
  %3 = alloca ptr, align 8
  %4 = alloca i32, align 4
  store ptr %0, ptr %3, align 8
  store i32 %1, ptr %4, align 4
  %5 = load ptr, ptr %3, align 8
  %6 = load i32, ptr %4, align 4
  %7 = icmp uge i32 %6, 8
  br i1 %7, label %8, label %9

8:                                                ; preds = %2
  br label %16

9:                                                ; preds = %2
  %10 = getelementptr inbounds nuw %struct.aiAnimMesh, ptr %5, i32 0, i32 6
  %11 = load i32, ptr %4, align 4
  %12 = zext i32 %11 to i64
  %13 = getelementptr inbounds nuw [8 x ptr], ptr %10, i64 0, i64 %12
  %14 = load ptr, ptr %13, align 8
  %15 = icmp ne ptr %14, null
  br label %16

16:                                               ; preds = %9, %8
  %17 = phi i1 [ false, %8 ], [ %15, %9 ]
  ret i1 %17
}

; Function Attrs: mustprogress nounwind uwtable
define linkonce_odr hidden noundef zeroext i1 @_ZNK6aiMesh16HasTextureCoordsEj(ptr noundef nonnull align 8 dereferenceable(1320) %0, i32 noundef %1) #0 comdat align 2 {
  %3 = alloca i1, align 1
  %4 = alloca ptr, align 8
  %5 = alloca i32, align 4
  store ptr %0, ptr %4, align 8
  store i32 %1, ptr %5, align 4
  %6 = load ptr, ptr %4, align 8
  %7 = load i32, ptr %5, align 4
  %8 = icmp uge i32 %7, 8
  br i1 %8, label %9, label %10

9:                                                ; preds = %2
  store i1 false, ptr %3, align 1
  br label %23

10:                                               ; preds = %2
  %11 = getelementptr inbounds nuw %struct.aiMesh, ptr %6, i32 0, i32 8
  %12 = load i32, ptr %5, align 4
  %13 = zext i32 %12 to i64
  %14 = getelementptr inbounds nuw [8 x ptr], ptr %11, i64 0, i64 %13
  %15 = load ptr, ptr %14, align 8
  %16 = icmp ne ptr %15, null
  br i1 %16, label %17, label %21

17:                                               ; preds = %10
  %18 = getelementptr inbounds nuw %struct.aiMesh, ptr %6, i32 0, i32 1
  %19 = load i32, ptr %18, align 4
  %20 = icmp ugt i32 %19, 0
  br label %21

21:                                               ; preds = %17, %10
  %22 = phi i1 [ false, %10 ], [ %20, %17 ]
  store i1 %22, ptr %3, align 1
  br label %23

23:                                               ; preds = %21, %9
  %24 = load i1, ptr %3, align 1
  ret i1 %24
}

; Function Attrs: mustprogress nounwind uwtable
define internal void @_ZN12_GLOBAL__N_17flipUVsI10aiAnimMeshEEvPT_(ptr noundef %0) #0 {
  %2 = alloca ptr, align 8
  %3 = alloca i32, align 4
  %4 = alloca i32, align 4
  %5 = alloca i32, align 4
  store ptr %0, ptr %2, align 8
  %6 = load ptr, ptr %2, align 8
  %7 = icmp eq ptr %6, null
  br i1 %7, label %8, label %9

8:                                                ; preds = %1
  br label %58

9:                                                ; preds = %1
  call void @llvm.lifetime.start.p0(i64 4, ptr %3) #12
  store i32 0, ptr %3, align 4
  br label %10

10:                                               ; preds = %54, %9
  %11 = load i32, ptr %3, align 4
  %12 = icmp ult i32 %11, 8
  br i1 %12, label %14, label %13

13:                                               ; preds = %10
  store i32 2, ptr %4, align 4
  br label %57

14:                                               ; preds = %10
  %15 = load ptr, ptr %2, align 8
  %16 = load i32, ptr %3, align 4
  %17 = call noundef zeroext i1 @_ZNK10aiAnimMesh16HasTextureCoordsEj(ptr noundef nonnull align 8 dereferenceable(1200) %15, i32 noundef %16)
  br i1 %17, label %19, label %18

18:                                               ; preds = %14
  store i32 2, ptr %4, align 4
  br label %57

19:                                               ; preds = %14
  call void @llvm.lifetime.start.p0(i64 4, ptr %5) #12
  store i32 0, ptr %5, align 4
  br label %20

20:                                               ; preds = %50, %19
  %21 = load i32, ptr %5, align 4
  %22 = load ptr, ptr %2, align 8
  %23 = getelementptr inbounds nuw %struct.aiAnimMesh, ptr %22, i32 0, i32 7
  %24 = load i32, ptr %23, align 8
  %25 = icmp ult i32 %21, %24
  br i1 %25, label %27, label %26

26:                                               ; preds = %20
  store i32 5, ptr %4, align 4
  call void @llvm.lifetime.end.p0(i64 4, ptr %5) #12
  br label %53

27:                                               ; preds = %20
  %28 = load ptr, ptr %2, align 8
  %29 = getelementptr inbounds nuw %struct.aiAnimMesh, ptr %28, i32 0, i32 6
  %30 = load i32, ptr %3, align 4
  %31 = zext i32 %30 to i64
  %32 = getelementptr inbounds nuw [8 x ptr], ptr %29, i64 0, i64 %31
  %33 = load ptr, ptr %32, align 8
  %34 = load i32, ptr %5, align 4
  %35 = zext i32 %34 to i64
  %36 = getelementptr inbounds nuw %class.aiVector3t, ptr %33, i64 %35
  %37 = getelementptr inbounds nuw %class.aiVector3t, ptr %36, i32 0, i32 1
  %38 = load float, ptr %37, align 4
  %39 = fsub float 1.000000e+00, %38
  %40 = load ptr, ptr %2, align 8
  %41 = getelementptr inbounds nuw %struct.aiAnimMesh, ptr %40, i32 0, i32 6
  %42 = load i32, ptr %3, align 4
  %43 = zext i32 %42 to i64
  %44 = getelementptr inbounds nuw [8 x ptr], ptr %41, i64 0, i64 %43
  %45 = load ptr, ptr %44, align 8
  %46 = load i32, ptr %5, align 4
  %47 = zext i32 %46 to i64
  %48 = getelementptr inbounds nuw %class.aiVector3t, ptr %45, i64 %47
  %49 = getelementptr inbounds nuw %class.aiVector3t, ptr %48, i32 0, i32 1
  store float %39, ptr %49, align 4
  br label %50

50:                                               ; preds = %27
  %51 = load i32, ptr %5, align 4
  %52 = add i32 %51, 1
  store i32 %52, ptr %5, align 4
  br label %20, !llvm.loop !24

53:                                               ; preds = %26
  br label %54

54:                                               ; preds = %53
  %55 = load i32, ptr %3, align 4
  %56 = add i32 %55, 1
  store i32 %56, ptr %3, align 4
  br label %10, !llvm.loop !25

57:                                               ; preds = %18, %13
  call void @llvm.lifetime.end.p0(i64 4, ptr %3) #12
  br label %58

58:                                               ; preds = %8, %57
  ret void
}

; Function Attrs: mustprogress uwtable
define internal void @_ZN12_GLOBAL__N_17flipUVsI6aiMeshEEvPT_(ptr noundef %0) #1 {
  %2 = alloca ptr, align 8
  %3 = alloca i32, align 4
  %4 = alloca i32, align 4
  %5 = alloca i32, align 4
  store ptr %0, ptr %2, align 8
  %6 = load ptr, ptr %2, align 8
  %7 = icmp eq ptr %6, null
  br i1 %7, label %8, label %9

8:                                                ; preds = %1
  br label %58

9:                                                ; preds = %1
  call void @llvm.lifetime.start.p0(i64 4, ptr %3) #12
  store i32 0, ptr %3, align 4
  br label %10

10:                                               ; preds = %54, %9
  %11 = load i32, ptr %3, align 4
  %12 = icmp ult i32 %11, 8
  br i1 %12, label %14, label %13

13:                                               ; preds = %10
  store i32 2, ptr %4, align 4
  br label %57

14:                                               ; preds = %10
  %15 = load ptr, ptr %2, align 8
  %16 = load i32, ptr %3, align 4
  %17 = call noundef zeroext i1 @_ZNK6aiMesh16HasTextureCoordsEj(ptr noundef nonnull align 8 dereferenceable(1320) %15, i32 noundef %16)
  br i1 %17, label %19, label %18

18:                                               ; preds = %14
  store i32 2, ptr %4, align 4
  br label %57

19:                                               ; preds = %14
  call void @llvm.lifetime.start.p0(i64 4, ptr %5) #12
  store i32 0, ptr %5, align 4
  br label %20

20:                                               ; preds = %50, %19
  %21 = load i32, ptr %5, align 4
  %22 = load ptr, ptr %2, align 8
  %23 = getelementptr inbounds nuw %struct.aiMesh, ptr %22, i32 0, i32 1
  %24 = load i32, ptr %23, align 4
  %25 = icmp ult i32 %21, %24
  br i1 %25, label %27, label %26

26:                                               ; preds = %20
  store i32 5, ptr %4, align 4
  call void @llvm.lifetime.end.p0(i64 4, ptr %5) #12
  br label %53

27:                                               ; preds = %20
  %28 = load ptr, ptr %2, align 8
  %29 = getelementptr inbounds nuw %struct.aiMesh, ptr %28, i32 0, i32 8
  %30 = load i32, ptr %3, align 4
  %31 = zext i32 %30 to i64
  %32 = getelementptr inbounds nuw [8 x ptr], ptr %29, i64 0, i64 %31
  %33 = load ptr, ptr %32, align 8
  %34 = load i32, ptr %5, align 4
  %35 = zext i32 %34 to i64
  %36 = getelementptr inbounds nuw %class.aiVector3t, ptr %33, i64 %35
  %37 = getelementptr inbounds nuw %class.aiVector3t, ptr %36, i32 0, i32 1
  %38 = load float, ptr %37, align 4
  %39 = fsub float 1.000000e+00, %38
  %40 = load ptr, ptr %2, align 8
  %41 = getelementptr inbounds nuw %struct.aiMesh, ptr %40, i32 0, i32 8
  %42 = load i32, ptr %3, align 4
  %43 = zext i32 %42 to i64
  %44 = getelementptr inbounds nuw [8 x ptr], ptr %41, i64 0, i64 %43
  %45 = load ptr, ptr %44, align 8
  %46 = load i32, ptr %5, align 4
  %47 = zext i32 %46 to i64
  %48 = getelementptr inbounds nuw %class.aiVector3t, ptr %45, i64 %47
  %49 = getelementptr inbounds nuw %class.aiVector3t, ptr %48, i32 0, i32 1
  store float %39, ptr %49, align 4
  br label %50

50:                                               ; preds = %27
  %51 = load i32, ptr %5, align 4
  %52 = add i32 %51, 1
  store i32 %52, ptr %5, align 4
  br label %20, !llvm.loop !22

53:                                               ; preds = %26
  br label %54

54:                                               ; preds = %53
  %55 = load i32, ptr %3, align 4
  %56 = add i32 %55, 1
  store i32 %56, ptr %3, align 4
  br label %10, !llvm.loop !23

57:                                               ; preds = %18, %13
  call void @llvm.lifetime.end.p0(i64 4, ptr %3) #12
  br label %58

58:                                               ; preds = %8, %57
  ret void
}

; Function Attrs: mustprogress uwtable
define hidden void @_ZN6Assimp14FlipUVsProcess11ProcessMeshEP6aiMesh(ptr noundef nonnull align 8 dereferenceable(24) %0, ptr noundef %1) #1 align 2 {
  %3 = alloca ptr, align 8
  %4 = alloca ptr, align 8
  %5 = alloca i32, align 4
  store ptr %0, ptr %3, align 8
  store ptr %1, ptr %4, align 8
  %6 = load ptr, ptr %4, align 8
  call void @_ZN12_GLOBAL__N_17flipUVsI6aiMeshEEvPT_(ptr noundef %6)
  call void @llvm.lifetime.start.p0(i64 4, ptr %5) #12
  store i32 0, ptr %5, align 4
  br label %7

7:                                                ; preds = %22, %2
  %8 = load i32, ptr %5, align 4
  %9 = load ptr, ptr %4, align 8
  %10 = getelementptr inbounds nuw %struct.aiMesh, ptr %9, i32 0, i32 15
  %11 = load i32, ptr %10, align 8
  %12 = icmp ult i32 %8, %11
  br i1 %12, label %14, label %13

13:                                               ; preds = %7
  call void @llvm.lifetime.end.p0(i64 4, ptr %5) #12
  br label %25

14:                                               ; preds = %7
  %15 = load ptr, ptr %4, align 8
  %16 = getelementptr inbounds nuw %struct.aiMesh, ptr %15, i32 0, i32 16
  %17 = load ptr, ptr %16, align 8
  %18 = load i32, ptr %5, align 4
  %19 = zext i32 %18 to i64
  %20 = getelementptr inbounds nuw ptr, ptr %17, i64 %19
  %21 = load ptr, ptr %20, align 8
  call void @_ZN12_GLOBAL__N_17flipUVsI10aiAnimMeshEEvPT_(ptr noundef %21)
  br label %22

22:                                               ; preds = %14
  %23 = load i32, ptr %5, align 4
  %24 = add i32 %23, 1
  store i32 %24, ptr %5, align 4
  br label %7, !llvm.loop !20

25:                                               ; preds = %13
  ret void
}