; Function Attrs: mustprogress nofree norecurse nosync nounwind memory(readwrite, inaccessiblemem: none) uwtable
define hidden void @_ZN6Assimp14FlipUVsProcess11ProcessMeshEP6aiMesh(ptr noundef nonnull readnone align 8 captures(none) dereferenceable(24) %0, ptr noundef readonly captures(address_is_null) %1) local_unnamed_addr #6 align 2 {
  %3 = icmp eq ptr %1, null
  br i1 %3, label %_ZN12_GLOBAL__N_17flipUVsI6aiMeshEEvPT_.exit, label %.preheader15.i

.preheader15.i:                                   ; preds = %2
  %4 = getelementptr inbounds nuw i8, ptr %1, i64 112
  %5 = getelementptr inbounds nuw i8, ptr %1, i64 4
  %.pre.i = load i32, ptr %5, align 4
  br label %_ZNK6aiMesh16HasTextureCoordsEj.exit.i

_ZNK6aiMesh16HasTextureCoordsEj.exit.i:           ; preds = %._crit_edge.i, %.preheader15.i
  %6 = phi i32 [ %.pre.i, %.preheader15.i ], [ %15, %._crit_edge.i ]
  %indvars.iv19.i = phi i64 [ 0, %.preheader15.i ], [ %indvars.iv.next20.i, %._crit_edge.i ]
  %7 = getelementptr inbounds nuw [8 x ptr], ptr %4, i64 0, i64 %indvars.iv19.i
  %8 = load ptr, ptr %7, align 8
  %.not.i.i = icmp ne ptr %8, null
  %9 = icmp ne i32 %6, 0
  %10 = select i1 %.not.i.i, i1 %9, i1 false
  br i1 %10, label %.lr.ph.i, label %_ZN12_GLOBAL__N_17flipUVsI6aiMeshEEvPT_.exit

._crit_edge.i:                                    ; preds = %.lr.ph.i
  %indvars.iv.next20.i = add nuw nsw i64 %indvars.iv19.i, 1
  %exitcond.not.i = icmp eq i64 %indvars.iv.next20.i, 8
  br i1 %exitcond.not.i, label %_ZN12_GLOBAL__N_17flipUVsI6aiMeshEEvPT_.exit, label %_ZNK6aiMesh16HasTextureCoordsEj.exit.i, !llvm.loop !18

.lr.ph.i:                                         ; preds = %_ZNK6aiMesh16HasTextureCoordsEj.exit.i, %.lr.ph.i
  %indvars.iv.i = phi i64 [ %indvars.iv.next.i, %.lr.ph.i ], [ 0, %_ZNK6aiMesh16HasTextureCoordsEj.exit.i ]
  %11 = load ptr, ptr %7, align 8
  %12 = getelementptr inbounds nuw %class.aiVector3t, ptr %11, i64 %indvars.iv.i, i32 1
  %13 = load float, ptr %12, align 4
  %14 = fsub float 1.000000e+00, %13
  store float %14, ptr %12, align 4
  %indvars.iv.next.i = add nuw nsw i64 %indvars.iv.i, 1
  %15 = load i32, ptr %5, align 4
  %16 = zext i32 %15 to i64
  %17 = icmp samesign ult i64 %indvars.iv.next.i, %16
  br i1 %17, label %.lr.ph.i, label %._crit_edge.i, !llvm.loop !19

_ZN12_GLOBAL__N_17flipUVsI6aiMeshEEvPT_.exit:     ; preds = %_ZNK6aiMesh16HasTextureCoordsEj.exit.i, %._crit_edge.i, %2
  %18 = getelementptr inbounds nuw i8, ptr %1, i64 1264
  %19 = load i32, ptr %18, align 8
  %.not = icmp eq i32 %19, 0
  br i1 %.not, label %._crit_edge, label %.lr.ph

.lr.ph:                                           ; preds = %_ZN12_GLOBAL__N_17flipUVsI6aiMeshEEvPT_.exit
  %20 = getelementptr inbounds nuw i8, ptr %1, i64 1272
  br label %21

._crit_edge:                                      ; preds = %_ZN12_GLOBAL__N_17flipUVsI10aiAnimMeshEEvPT_.exit, %_ZN12_GLOBAL__N_17flipUVsI6aiMeshEEvPT_.exit
  ret void

21:                                               ; preds = %.lr.ph, %_ZN12_GLOBAL__N_17flipUVsI10aiAnimMeshEEvPT_.exit
  %22 = phi i32 [ %19, %.lr.ph ], [ %39, %_ZN12_GLOBAL__N_17flipUVsI10aiAnimMeshEEvPT_.exit ]
  %indvars.iv = phi i64 [ 0, %.lr.ph ], [ %indvars.iv.next, %_ZN12_GLOBAL__N_17flipUVsI10aiAnimMeshEEvPT_.exit ]
  %23 = load ptr, ptr %20, align 8
  %24 = getelementptr inbounds nuw ptr, ptr %23, i64 %indvars.iv
  %25 = load ptr, ptr %24, align 8
  %26 = icmp eq ptr %25, null
  br i1 %26, label %_ZN12_GLOBAL__N_17flipUVsI10aiAnimMeshEEvPT_.exit, label %.preheader15.i5

.preheader15.i5:                                  ; preds = %21
  %27 = getelementptr inbounds nuw i8, ptr %25, i64 1128
  %28 = getelementptr inbounds nuw i8, ptr %25, i64 1192
  br label %_ZNK10aiAnimMesh16HasTextureCoordsEj.exit.i

_ZNK10aiAnimMesh16HasTextureCoordsEj.exit.i:      ; preds = %._crit_edge.i9, %.preheader15.i5
  %indvars.iv20.i = phi i64 [ 0, %.preheader15.i5 ], [ %indvars.iv.next21.i, %._crit_edge.i9 ]
  %29 = getelementptr inbounds nuw [8 x ptr], ptr %27, i64 0, i64 %indvars.iv20.i
  %30 = load ptr, ptr %29, align 8
  %.not.i = icmp eq ptr %30, null
  br i1 %.not.i, label %_ZN12_GLOBAL__N_17flipUVsI10aiAnimMeshEEvPT_.exit.loopexit, label %.preheader.i

.preheader.i:                                     ; preds = %_ZNK10aiAnimMesh16HasTextureCoordsEj.exit.i
  %31 = load i32, ptr %28, align 8
  %.not18.i = icmp eq i32 %31, 0
  br i1 %.not18.i, label %._crit_edge.i9, label %.lr.ph.i6

._crit_edge.i9:                                   ; preds = %.lr.ph.i6, %.preheader.i
  %indvars.iv.next21.i = add nuw nsw i64 %indvars.iv20.i, 1
  %exitcond.not.i10 = icmp eq i64 %indvars.iv.next21.i, 8
  br i1 %exitcond.not.i10, label %_ZN12_GLOBAL__N_17flipUVsI10aiAnimMeshEEvPT_.exit.loopexit, label %_ZNK10aiAnimMesh16HasTextureCoordsEj.exit.i, !llvm.loop !20

.lr.ph.i6:                                        ; preds = %.preheader.i, %.lr.ph.i6
  %indvars.iv.i7 = phi i64 [ %indvars.iv.next.i8, %.lr.ph.i6 ], [ 0, %.preheader.i ]
  %32 = load ptr, ptr %29, align 8
  %33 = getelementptr inbounds nuw %class.aiVector3t, ptr %32, i64 %indvars.iv.i7, i32 1
  %34 = load float, ptr %33, align 4
  %35 = fsub float 1.000000e+00, %34
  store float %35, ptr %33, align 4
  %indvars.iv.next.i8 = add nuw nsw i64 %indvars.iv.i7, 1
  %36 = load i32, ptr %28, align 8
  %37 = zext i32 %36 to i64
  %38 = icmp samesign ult i64 %indvars.iv.next.i8, %37
  br i1 %38, label %.lr.ph.i6, label %._crit_edge.i9, !llvm.loop !21

_ZN12_GLOBAL__N_17flipUVsI10aiAnimMeshEEvPT_.exit.loopexit: ; preds = %._crit_edge.i9, %_ZNK10aiAnimMesh16HasTextureCoordsEj.exit.i
  %.pre = load i32, ptr %18, align 8
  br label %_ZN12_GLOBAL__N_17flipUVsI10aiAnimMeshEEvPT_.exit

_ZN12_GLOBAL__N_17flipUVsI10aiAnimMeshEEvPT_.exit: ; preds = %_ZN12_GLOBAL__N_17flipUVsI10aiAnimMeshEEvPT_.exit.loopexit, %21
  %39 = phi i32 [ %.pre, %_ZN12_GLOBAL__N_17flipUVsI10aiAnimMeshEEvPT_.exit.loopexit ], [ %22, %21 ]
  %indvars.iv.next = add nuw nsw i64 %indvars.iv, 1
  %40 = zext i32 %39 to i64
  %41 = icmp samesign ult i64 %indvars.iv.next, %40
  br i1 %41, label %21, label %._crit_edge, !llvm.loop !22
}